; Function Attrs: nounwind uwtable
define internal ptr @InstructionSequenceType_get_nested(ptr noundef readonly captures(none) %0, ptr readnone captures(none) %1) #1 {
  %3 = getelementptr i8, ptr %0, i64 56
  %.val = load ptr, ptr %3, align 8, !tbaa !34
  %4 = icmp eq ptr %.val, null
  br i1 %4, label %5, label %7

5:                                                ; preds = %2
  %6 = tail call ptr @PyList_New(i64 noundef 0) #6
  br label %InstructionSequenceType_get_nested_impl.exit

7:                                                ; preds = %2
  %8 = load i32, ptr %.val, align 8, !tbaa !35
  %9 = icmp slt i32 %8, 0
  br i1 %9, label %InstructionSequenceType_get_nested_impl.exit, label %10

10:                                               ; preds = %7
  %11 = add nuw i32 %8, 1
  store i32 %11, ptr %.val, align 8, !tbaa !35
  br label %InstructionSequenceType_get_nested_impl.exit

InstructionSequenceType_get_nested_impl.exit:     ; preds = %5, %7, %10
  %.0.i = phi ptr [ %6, %5 ], [ %.val, %7 ], [ %.val, %10 ]
  ret ptr %.0.i
}